target datalayout = "e-m:e-p270:32:32-p271:32:32-p272:64:64-i64:64-i128:128-f80:128-n8:16:32:64-S128"
target triple = "x86_64-pc-linux-gnu"

%struct.NavMeshSetHeader = type { i32, i32, i32, %struct.dtNavMeshParams }
%struct.dtNavMeshParams = type { [3 x float], float, float, i32, i32 }
%struct.NavMeshTileHeader = type { i32, i32 }
%struct.dtMeshTile = type { i32, i32, ptr, ptr, ptr, ptr, ptr, ptr, ptr, ptr, ptr, ptr, i32, i32, ptr }

@.str.28 = private unnamed_addr constant [3 x i8] c"wb\00", align 1

; Function Attrs: mustprogress uwtable
define dso_local void @_ZN6Sample7saveAllEPKcPK9dtNavMesh(ptr noundef nonnull align 8 dereferenceable(200) %0, ptr noundef %1, ptr noundef %2) #2 align 2 {
  %4 = alloca ptr, align 8
  %5 = alloca ptr, align 8
  %6 = alloca ptr, align 8
  %7 = alloca ptr, align 8
  %8 = alloca %struct.NavMeshSetHeader, align 4
  %9 = alloca i32, align 4
  %10 = alloca ptr, align 8
  %11 = alloca i32, align 4
  %12 = alloca ptr, align 8
  %13 = alloca %struct.NavMeshTileHeader, align 4
  store ptr %0, ptr %4, align 8
  store ptr %1, ptr %5, align 8
  store ptr %2, ptr %6, align 8
  %14 = load ptr, ptr %6, align 8
  %15 = icmp ne ptr %14, null
  br i1 %15, label %17, label %16

16:                                               ; preds = %3
  br label %110

17:                                               ; preds = %3
  %18 = load ptr, ptr %5, align 8
  %19 = call noalias ptr @fopen(ptr noundef %18, ptr noundef @.str.28)
  store ptr %19, ptr %7, align 8
  %20 = load ptr, ptr %7, align 8
  %21 = icmp ne ptr %20, null
  br i1 %21, label %23, label %22

22:                                               ; preds = %17
  br label %110

23:                                               ; preds = %17
  %24 = getelementptr inbounds %struct.NavMeshSetHeader, ptr %8, i32 0, i32 0
  store i32 1297302868, ptr %24, align 4
  %25 = getelementptr inbounds %struct.NavMeshSetHeader, ptr %8, i32 0, i32 1
  store i32 1, ptr %25, align 4
  %26 = getelementptr inbounds %struct.NavMeshSetHeader, ptr %8, i32 0, i32 2
  store i32 0, ptr %26, align 4
  store i32 0, ptr %9, align 4
  br label %27

27:                                               ; preds = %53, %23
  %28 = load i32, ptr %9, align 4
  %29 = load ptr, ptr %6, align 8
  %30 = call noundef i32 @_ZNK9dtNavMesh11getMaxTilesEv(ptr noundef nonnull align 8 dereferenceable(100) %29)
  %31 = icmp slt i32 %28, %30
  br i1 %31, label %32, label %56

32:                                               ; preds = %27
  %33 = load ptr, ptr %6, align 8
  %34 = load i32, ptr %9, align 4
  %35 = call noundef ptr @_ZNK9dtNavMesh7getTileEi(ptr noundef nonnull align 8 dereferenceable(100) %33, i32 noundef %34)
  store ptr %35, ptr %10, align 8
  %36 = load ptr, ptr %10, align 8
  %37 = icmp ne ptr %36, null
  br i1 %37, label %38, label %48

38:                                               ; preds = %32
  %39 = load ptr, ptr %10, align 8
  %40 = getelementptr inbounds %struct.dtMeshTile, ptr %39, i32 0, i32 2
  %41 = load ptr, ptr %40, align 8
  %42 = icmp ne ptr %41, null
  br i1 %42, label %43, label %48

43:                                               ; preds = %38
  %44 = load ptr, ptr %10, align 8
  %45 = getelementptr inbounds %struct.dtMeshTile, ptr %44, i32 0, i32 12
  %46 = load i32, ptr %45, align 8
  %47 = icmp ne i32 %46, 0
  br i1 %47, label %49, label %48

48:                                               ; preds = %43, %38, %32
  br label %53

49:                                               ; preds = %43
  %50 = getelementptr inbounds %struct.NavMeshSetHeader, ptr %8, i32 0, i32 2
  %51 = load i32, ptr %50, align 4
  %52 = add nsw i32 %51, 1
  store i32 %52, ptr %50, align 4
  br label %53

53:                                               ; preds = %49, %48
  %54 = load i32, ptr %9, align 4
  %55 = add nsw i32 %54, 1
  store i32 %55, ptr %9, align 4
  br label %27, !llvm.loop !14

56:                                               ; preds = %27
  %57 = getelementptr inbounds %struct.NavMeshSetHeader, ptr %8, i32 0, i32 3
  %58 = load ptr, ptr %6, align 8
  %59 = call noundef ptr @_ZNK9dtNavMesh9getParamsEv(ptr noundef nonnull align 8 dereferenceable(100) %58)
  call void @llvm.memcpy.p0.p0.i64(ptr align 4 %57, ptr align 4 %59, i64 28, i1 false)
  %60 = load ptr, ptr %7, align 8
  %61 = call i64 @fwrite(ptr noundef %8, i64 noundef 40, i64 noundef 1, ptr noundef %60)
  store i32 0, ptr %11, align 4
  br label %62

62:                                               ; preds = %104, %56
  %63 = load i32, ptr %11, align 4
  %64 = load ptr, ptr %6, align 8
  %65 = call noundef i32 @_ZNK9dtNavMesh11getMaxTilesEv(ptr noundef nonnull align 8 dereferenceable(100) %64)
  %66 = icmp slt i32 %63, %65
  br i1 %66, label %67, label %107

67:                                               ; preds = %62
  %68 = load ptr, ptr %6, align 8
  %69 = load i32, ptr %11, align 4
  %70 = call noundef ptr @_ZNK9dtNavMesh7getTileEi(ptr noundef nonnull align 8 dereferenceable(100) %68, i32 noundef %69)
  store ptr %70, ptr %12, align 8
  %71 = load ptr, ptr %12, align 8
  %72 = icmp ne ptr %71, null
  br i1 %72, label %73, label %83

73:                                               ; preds = %67
  %74 = load ptr, ptr %12, align 8
  %75 = getelementptr inbounds %struct.dtMeshTile, ptr %74, i32 0, i32 2
  %76 = load ptr, ptr %75, align 8
  %77 = icmp ne ptr %76, null
  br i1 %77, label %78, label %83

78:                                               ; preds = %73
  %79 = load ptr, ptr %12, align 8
  %80 = getelementptr inbounds %struct.dtMeshTile, ptr %79, i32 0, i32 12
  %81 = load i32, ptr %80, align 8
  %82 = icmp ne i32 %81, 0
  br i1 %82, label %84, label %83

83:                                               ; preds = %78, %73, %67
  br label %104

84:                                               ; preds = %78
  %85 = load ptr, ptr %6, align 8
  %86 = load ptr, ptr %12, align 8
  %87 = call noundef i32 @_ZNK9dtNavMesh10getTileRefEPK10dtMeshTile(ptr noundef nonnull align 8 dereferenceable(100) %85, ptr noundef %86)
  %88 = getelementptr inbounds %struct.NavMeshTileHeader, ptr %13, i32 0, i32 0
  store i32 %87, ptr %88, align 4
  %89 = load ptr, ptr %12, align 8
  %90 = getelementptr inbounds %struct.dtMeshTile, ptr %89, i32 0, i32 12
  %91 = load i32, ptr %90, align 8
  %92 = getelementptr inbounds %struct.NavMeshTileHeader, ptr %13, i32 0, i32 1
  store i32 %91, ptr %92, align 4
  %93 = load ptr, ptr %7, align 8
  %94 = call i64 @fwrite(ptr noundef %13, i64 noundef 8, i64 noundef 1, ptr noundef %93)
  %95 = load ptr, ptr %12, align 8
  %96 = getelementptr inbounds %struct.dtMeshTile, ptr %95, i32 0, i32 11
  %97 = load ptr, ptr %96, align 8
  %98 = load ptr, ptr %12, align 8
  %99 = getelementptr inbounds %struct.dtMeshTile, ptr %98, i32 0, i32 12
  %100 = load i32, ptr %99, align 8
  %101 = sext i32 %100 to i64
  %102 = load ptr, ptr %7, align 8
  %103 = call i64 @fwrite(ptr noundef %97, i64 noundef %101, i64 noundef 1, ptr noundef %102)
  br label %104

104:                                              ; preds = %84, %83
  %105 = load i32, ptr %11, align 4
  %106 = add nsw i32 %105, 1
  store i32 %106, ptr %11, align 4
  br label %62, !llvm.loop !15

107:                                              ; preds = %62
  %108 = load ptr, ptr %7, align 8
  %109 = call i32 @fclose(ptr noundef %108)
  br label %110

110:                                              ; preds = %107, %22, %16
  ret void
}