; Function Attrs: mustprogress uwtable
define dso_local void @_ZN6Sample7saveAllEPKcPK9dtNavMesh(ptr nocapture noundef nonnull readnone align 8 dereferenceable(200) %0, ptr nocapture noundef readonly %1, ptr noundef %2) local_unnamed_addr #3 align 2 {
  %4 = alloca %struct.NavMeshSetHeader, align 4
  %5 = alloca %struct.NavMeshTileHeader, align 4
  %.not = icmp eq ptr %2, null
  br i1 %.not, label %55, label %6

6:                                                ; preds = %3
  %7 = tail call noalias ptr @fopen(ptr noundef %1, ptr noundef nonnull @.str.28)
  %.not33 = icmp eq ptr %7, null
  br i1 %.not33, label %55, label %8

8:                                                ; preds = %6
  store i32 1297302868, ptr %4, align 4
  %9 = getelementptr inbounds i8, ptr %4, i64 4
  store i32 1, ptr %9, align 4
  %10 = getelementptr inbounds i8, ptr %4, i64 8
  %11 = tail call noundef i32 @_ZNK9dtNavMesh11getMaxTilesEv(ptr noundef nonnull align 8 dereferenceable(100) %2)
  %12 = icmp sgt i32 %11, 0
  br i1 %12, label %.lr.ph, label %._crit_edge

.lr.ph:                                           ; preds = %8, %22
  %.040 = phi i32 [ %24, %22 ], [ 0, %8 ]
  %13 = phi i32 [ %23, %22 ], [ 0, %8 ]
  %14 = tail call noundef ptr @_ZNK9dtNavMesh7getTileEi(ptr noundef nonnull align 8 dereferenceable(100) %2, i32 noundef %.040)
  %.not37 = icmp eq ptr %14, null
  br i1 %.not37, label %22, label %15

15:                                               ; preds = %.lr.ph
  %16 = getelementptr inbounds i8, ptr %14, i64 8
  %17 = load ptr, ptr %16, align 8
  %.not38 = icmp eq ptr %17, null
  br i1 %.not38, label %22, label %18

18:                                               ; preds = %15
  %19 = getelementptr inbounds i8, ptr %14, i64 88
  %20 = load i32, ptr %19, align 8
  %.not39 = icmp ne i32 %20, 0
  %21 = zext i1 %.not39 to i32
  %spec.select = add nsw i32 %13, %21
  br label %22

22:                                               ; preds = %18, %.lr.ph, %15
  %23 = phi i32 [ %13, %.lr.ph ], [ %13, %15 ], [ %spec.select, %18 ]
  %24 = add nuw nsw i32 %.040, 1
  %25 = tail call noundef i32 @_ZNK9dtNavMesh11getMaxTilesEv(ptr noundef nonnull align 8 dereferenceable(100) %2)
  %26 = icmp slt i32 %24, %25
  br i1 %26, label %.lr.ph, label %._crit_edge, !llvm.loop !13

._crit_edge:                                      ; preds = %22, %8
  %.lcssa = phi i32 [ 0, %8 ], [ %23, %22 ]
  store i32 %.lcssa, ptr %10, align 4
  %27 = getelementptr inbounds i8, ptr %4, i64 12
  %28 = tail call noundef ptr @_ZNK9dtNavMesh9getParamsEv(ptr noundef nonnull align 8 dereferenceable(100) %2)
  call void @llvm.memcpy.p0.p0.i64(ptr noundef nonnull align 4 dereferenceable(28) %27, ptr noundef nonnull align 4 dereferenceable(28) %28, i64 28, i1 false)
  %29 = call i64 @fwrite(ptr noundef nonnull %4, i64 noundef 40, i64 noundef 1, ptr noundef nonnull %7)
  %30 = tail call noundef i32 @_ZNK9dtNavMesh11getMaxTilesEv(ptr noundef nonnull align 8 dereferenceable(100) %2)
  %31 = icmp sgt i32 %30, 0
  br i1 %31, label %.lr.ph43, label %._crit_edge44

.lr.ph43:                                         ; preds = %._crit_edge
  %32 = getelementptr inbounds i8, ptr %5, i64 4
  br label %33

33:                                               ; preds = %.lr.ph43, %50
  %.02841 = phi i32 [ 0, %.lr.ph43 ], [ %51, %50 ]
  %34 = tail call noundef ptr @_ZNK9dtNavMesh7getTileEi(ptr noundef nonnull align 8 dereferenceable(100) %2, i32 noundef %.02841)
  %.not34 = icmp eq ptr %34, null
  br i1 %.not34, label %50, label %35

35:                                               ; preds = %33
  %36 = getelementptr inbounds i8, ptr %34, i64 8
  %37 = load ptr, ptr %36, align 8
  %.not35 = icmp eq ptr %37, null
  br i1 %.not35, label %50, label %38

38:                                               ; preds = %35
  %39 = getelementptr inbounds i8, ptr %34, i64 88
  %40 = load i32, ptr %39, align 8
  %.not36 = icmp eq i32 %40, 0
  br i1 %.not36, label %50, label %41

41:                                               ; preds = %38
  %42 = tail call noundef i32 @_ZNK9dtNavMesh10getTileRefEPK10dtMeshTile(ptr noundef nonnull align 8 dereferenceable(100) %2, ptr noundef nonnull %34)
  store i32 %42, ptr %5, align 4
  %43 = load i32, ptr %39, align 8
  store i32 %43, ptr %32, align 4
  %44 = call i64 @fwrite(ptr noundef nonnull %5, i64 noundef 8, i64 noundef 1, ptr noundef nonnull %7)
  %45 = getelementptr inbounds i8, ptr %34, i64 80
  %46 = load ptr, ptr %45, align 8
  %47 = load i32, ptr %39, align 8
  %48 = sext i32 %47 to i64
  %49 = tail call i64 @fwrite(ptr noundef %46, i64 noundef %48, i64 noundef 1, ptr noundef nonnull %7)
  br label %50

50:                                               ; preds = %33, %35, %38, %41
  %51 = add nuw nsw i32 %.02841, 1
  %52 = tail call noundef i32 @_ZNK9dtNavMesh11getMaxTilesEv(ptr noundef nonnull align 8 dereferenceable(100) %2)
  %53 = icmp slt i32 %51, %52
  br i1 %53, label %33, label %._crit_edge44, !llvm.loop !14

._crit_edge44:                                    ; preds = %50, %._crit_edge
  %54 = tail call i32 @fclose(ptr noundef nonnull %7)
  br label %55

55:                                               ; preds = %6, %3, %._crit_edge44
  ret void
}